target datalayout = "e-m:e-p270:32:32-p271:32:32-p272:64:64-i64:64-i128:128-f80:128-n8:16:32:64-S128"
target triple = "x86_64-pc-linux-gnu"

%struct.psa_key_attributes_s = type { %struct.psa_core_key_attributes_t, ptr, i64 }
%struct.psa_core_key_attributes_t = type { i16, i16, i32, i32, %struct.psa_key_policy_s, i16 }
%struct.psa_key_policy_s = type { i32, i32, i32 }

; Function Attrs: nounwind uwtable
define hidden i32 @psa_driver_wrapper_asymmetric_decrypt(ptr noundef %0, ptr noundef %1, i64 noundef %2, i32 noundef %3, ptr noundef %4, i64 noundef %5, ptr noundef %6, i64 noundef %7, ptr noundef %8, i64 noundef %9, ptr noundef %10) #0 {
  %12 = alloca i32, align 4
  %13 = alloca ptr, align 8
  %14 = alloca ptr, align 8
  %15 = alloca i64, align 8
  %16 = alloca i32, align 4
  %17 = alloca ptr, align 8
  %18 = alloca i64, align 8
  %19 = alloca ptr, align 8
  %20 = alloca i64, align 8
  %21 = alloca ptr, align 8
  %22 = alloca i64, align 8
  %23 = alloca ptr, align 8
  %24 = alloca i32, align 4
  %25 = alloca i32, align 4
  store ptr %0, ptr %13, align 8
  store ptr %1, ptr %14, align 8
  store i64 %2, ptr %15, align 8
  store i32 %3, ptr %16, align 4
  store ptr %4, ptr %17, align 8
  store i64 %5, ptr %18, align 8
  store ptr %6, ptr %19, align 8
  store i64 %7, ptr %20, align 8
  store ptr %8, ptr %21, align 8
  store i64 %9, ptr %22, align 8
  store ptr %10, ptr %23, align 8
  store i32 -151, ptr %24, align 4
  %26 = load ptr, ptr %13, align 8
  %27 = getelementptr inbounds %struct.psa_key_attributes_s, ptr %26, i32 0, i32 0
  %28 = getelementptr inbounds %struct.psa_core_key_attributes_t, ptr %27, i32 0, i32 2
  %29 = load i32, ptr %28, align 4
  %30 = lshr i32 %29, 8
  store i32 %30, ptr %25, align 4
  %31 = load i32, ptr %25, align 4
  switch i32 %31, label %45 [
    i32 0, label %32
  ]

32:                                               ; preds = %11
  %33 = load ptr, ptr %13, align 8
  %34 = load ptr, ptr %14, align 8
  %35 = load i64, ptr %15, align 8
  %36 = load i32, ptr %16, align 4
  %37 = load ptr, ptr %17, align 8
  %38 = load i64, ptr %18, align 8
  %39 = load ptr, ptr %19, align 8
  %40 = load i64, ptr %20, align 8
  %41 = load ptr, ptr %21, align 8
  %42 = load i64, ptr %22, align 8
  %43 = load ptr, ptr %23, align 8
  %44 = call i32 @mbedtls_psa_asymmetric_decrypt(ptr noundef %33, ptr noundef %34, i64 noundef %35, i32 noundef %36, ptr noundef %37, i64 noundef %38, ptr noundef %39, i64 noundef %40, ptr noundef %41, i64 noundef %42, ptr noundef %43)
  store i32 %44, ptr %12, align 4
  br label %46

45:                                               ; preds = %11
  store i32 -135, ptr %12, align 4
  br label %46

46:                                               ; preds = %45, %32
  %47 = load i32, ptr %12, align 4
  ret i32 %47
}