; Function Attrs: nounwind uwtable
define hidden i32 @psa_driver_wrapper_asymmetric_decrypt(ptr noundef %0, ptr noundef %1, i64 noundef %2, i32 noundef %3, ptr noundef %4, i64 noundef %5, ptr noundef %6, i64 noundef %7, ptr noundef %8, i64 noundef %9, ptr noundef %10) local_unnamed_addr #1 {
  %12 = getelementptr inbounds nuw i8, ptr %0, i64 4
  %13 = load i32, ptr %12, align 4
  %cond = icmp ult i32 %13, 256
  br i1 %cond, label %14, label %16

14:                                               ; preds = %11
  %15 = tail call i32 @mbedtls_psa_asymmetric_decrypt(ptr noundef nonnull %0, ptr noundef %1, i64 noundef %2, i32 noundef %3, ptr noundef %4, i64 noundef %5, ptr noundef %6, i64 noundef %7, ptr noundef %8, i64 noundef %9, ptr noundef %10) #5
  br label %16

16:                                               ; preds = %11, %14
  %.0 = phi i32 [ %15, %14 ], [ -135, %11 ]
  ret i32 %.0
}